target datalayout = "e-m:e-p270:32:32-p271:32:32-p272:64:64-i64:64-i128:128-f80:128-n8:16:32:64-S128"
target triple = "x86_64-unknown-linux-gnu"

%struct.QObjectBase_ = type { i32, i64 }
%struct.QObjectInputVisitor = type { %struct.Visitor, ptr, i8, %struct.anon, ptr }
%struct.Visitor = type { ptr, ptr, ptr, ptr, ptr, ptr, ptr, ptr, ptr, ptr, ptr, ptr, ptr, ptr, ptr, ptr, ptr, ptr, ptr, ptr, i32, %struct.CompatPolicy, ptr, ptr }
%struct.CompatPolicy = type { i8, i32, i8, i32, i8, i32, i8, i32 }
%struct.anon = type { ptr }
%struct.QObject = type { %struct.QObjectBase_ }
%struct.StackObject = type { ptr, ptr, ptr, ptr, ptr, i32, %struct.anon.1 }
%struct.anon.1 = type { ptr }

@.str.1 = private unnamed_addr constant [37 x i8] c"../qemu/qapi/qobject-input-visitor.c\00", align 1
@.str.12 = private unnamed_addr constant [59 x i8] c"QTYPE_NONE < obj->base.type && obj->base.type < QTYPE__MAX\00", align 1
@.str.13 = private unnamed_addr constant [105 x i8] c"/home/dtcxzyw/WorkSpace/Projects/compilers/llvm-opt-benchmark/bench/qemu/qemu/include/qapi/qmp/qobject.h\00", align 1
@__PRETTY_FUNCTION__.qobject_type = private unnamed_addr constant [36 x i8] c"QType qobject_type(const QObject *)\00", align 1
@.str.22 = private unnamed_addr constant [48 x i8] c"qobject_type(tos->obj) == QTYPE_QDICT && tos->h\00", align 1
@__PRETTY_FUNCTION__.qobject_input_end_struct = private unnamed_addr constant [50 x i8] c"void qobject_input_end_struct(Visitor *, void **)\00", align 1
@.str.23 = private unnamed_addr constant [24 x i8] c"tos && tos->qapi == obj\00", align 1
@__PRETTY_FUNCTION__.qobject_input_pop = private unnamed_addr constant [43 x i8] c"void qobject_input_pop(Visitor *, void **)\00", align 1

; Function Attrs: nounwind sspstrong uwtable
define internal void @qobject_input_stack_object_free(ptr noundef %tos) #0 {
entry:
  %tos.addr = alloca ptr, align 8
  store ptr %tos, ptr %tos.addr, align 8
  %0 = load ptr, ptr %tos.addr, align 8
  %h = getelementptr inbounds %struct.StackObject, ptr %0, i32 0, i32 3
  %1 = load ptr, ptr %h, align 8
  %tobool = icmp ne ptr %1, null
  br i1 %tobool, label %if.then, label %if.end

if.then:                                          ; preds = %entry
  %2 = load ptr, ptr %tos.addr, align 8
  %h1 = getelementptr inbounds %struct.StackObject, ptr %2, i32 0, i32 3
  %3 = load ptr, ptr %h1, align 8
  call void @g_hash_table_unref(ptr noundef %3)
  br label %if.end

if.end:                                           ; preds = %if.then, %entry
  %4 = load ptr, ptr %tos.addr, align 8
  call void @g_free(ptr noundef %4)
  ret void
}

; Function Attrs: nounwind sspstrong uwtable
define internal void @qobject_input_pop(ptr noundef %v, ptr noundef %obj) #0 {
entry:
  %v.addr = alloca ptr, align 8
  %obj.addr = alloca ptr, align 8
  %qiv = alloca ptr, align 8
  %tos = alloca ptr, align 8
  %elm = alloca ptr, align 8
  store ptr %v, ptr %v.addr, align 8
  store ptr %obj, ptr %obj.addr, align 8
  %0 = load ptr, ptr %v.addr, align 8
  %call = call ptr @to_qiv(ptr noundef %0)
  store ptr %call, ptr %qiv, align 8
  %1 = load ptr, ptr %qiv, align 8
  %stack = getelementptr inbounds %struct.QObjectInputVisitor, ptr %1, i32 0, i32 3
  %slh_first = getelementptr inbounds %struct.anon, ptr %stack, i32 0, i32 0
  %2 = load ptr, ptr %slh_first, align 8
  store ptr %2, ptr %tos, align 8
  %3 = load ptr, ptr %tos, align 8
  %tobool = icmp ne ptr %3, null
  br i1 %tobool, label %land.lhs.true, label %if.else

land.lhs.true:                                    ; preds = %entry
  %4 = load ptr, ptr %tos, align 8
  %qapi = getelementptr inbounds %struct.StackObject, ptr %4, i32 0, i32 2
  %5 = load ptr, ptr %qapi, align 8
  %6 = load ptr, ptr %obj.addr, align 8
  %cmp = icmp eq ptr %5, %6
  br i1 %cmp, label %if.then, label %if.else

if.then:                                          ; preds = %land.lhs.true
  br label %if.end

if.else:                                          ; preds = %land.lhs.true, %entry
  call void @__assert_fail(ptr noundef @.str.23, ptr noundef @.str.1, i32 noundef 273, ptr noundef @__PRETTY_FUNCTION__.qobject_input_pop) #7
  unreachable

if.end:                                           ; preds = %if.then
  br label %do.body

do.body:                                          ; preds = %if.end
  %7 = load ptr, ptr %qiv, align 8
  %stack1 = getelementptr inbounds %struct.QObjectInputVisitor, ptr %7, i32 0, i32 3
  %slh_first2 = getelementptr inbounds %struct.anon, ptr %stack1, i32 0, i32 0
  %8 = load ptr, ptr %slh_first2, align 8
  store ptr %8, ptr %elm, align 8
  %9 = load ptr, ptr %elm, align 8
  %node = getelementptr inbounds %struct.StackObject, ptr %9, i32 0, i32 6
  %sle_next = getelementptr inbounds %struct.anon.1, ptr %node, i32 0, i32 0
  %10 = load ptr, ptr %sle_next, align 8
  %11 = load ptr, ptr %qiv, align 8
  %stack3 = getelementptr inbounds %struct.QObjectInputVisitor, ptr %11, i32 0, i32 3
  %slh_first4 = getelementptr inbounds %struct.anon, ptr %stack3, i32 0, i32 0
  store ptr %10, ptr %slh_first4, align 8
  %12 = load ptr, ptr %elm, align 8
  %node5 = getelementptr inbounds %struct.StackObject, ptr %12, i32 0, i32 6
  %sle_next6 = getelementptr inbounds %struct.anon.1, ptr %node5, i32 0, i32 0
  store ptr null, ptr %sle_next6, align 8
  br label %do.end

do.end:                                           ; preds = %do.body
  %13 = load ptr, ptr %tos, align 8
  call void @qobject_input_stack_object_free(ptr noundef %13)
  ret void
}

; Function Attrs: nounwind sspstrong uwtable
define internal i32 @qobject_type(ptr noundef %obj) #0 {
entry:
  %obj.addr = alloca ptr, align 8
  store ptr %obj, ptr %obj.addr, align 8
  %0 = load ptr, ptr %obj.addr, align 8
  %base = getelementptr inbounds %struct.QObject, ptr %0, i32 0, i32 0
  %type = getelementptr inbounds %struct.QObjectBase_, ptr %base, i32 0, i32 0
  %1 = load i32, ptr %type, align 8
  %cmp = icmp ult i32 0, %1
  br i1 %cmp, label %land.lhs.true, label %if.else

land.lhs.true:                                    ; preds = %entry
  %2 = load ptr, ptr %obj.addr, align 8
  %base1 = getelementptr inbounds %struct.QObject, ptr %2, i32 0, i32 0
  %type2 = getelementptr inbounds %struct.QObjectBase_, ptr %base1, i32 0, i32 0
  %3 = load i32, ptr %type2, align 8
  %cmp3 = icmp ult i32 %3, 7
  br i1 %cmp3, label %if.then, label %if.else

if.then:                                          ; preds = %land.lhs.true
  br label %if.end

if.else:                                          ; preds = %land.lhs.true, %entry
  call void @__assert_fail(ptr noundef @.str.12, ptr noundef @.str.13, i32 noundef 126, ptr noundef @__PRETTY_FUNCTION__.qobject_type) #7
  unreachable

if.end:                                           ; preds = %if.then
  %4 = load ptr, ptr %obj.addr, align 8
  %base4 = getelementptr inbounds %struct.QObject, ptr %4, i32 0, i32 0
  %type5 = getelementptr inbounds %struct.QObjectBase_, ptr %base4, i32 0, i32 0
  %5 = load i32, ptr %type5, align 8
  ret i32 %5
}

; Function Attrs: nounwind sspstrong uwtable
define internal ptr @to_qiv(ptr noundef %v) #0 {
entry:
  %v.addr = alloca ptr, align 8
  %__mptr = alloca ptr, align 8
  %tmp = alloca ptr, align 8
  store ptr %v, ptr %v.addr, align 8
  %0 = load ptr, ptr %v.addr, align 8
  store ptr %0, ptr %__mptr, align 8
  %1 = load ptr, ptr %__mptr, align 8
  %add.ptr = getelementptr i8, ptr %1, i64 0
  store ptr %add.ptr, ptr %tmp, align 8
  %2 = load ptr, ptr %tmp, align 8
  ret ptr %2
}

; Function Attrs: nounwind sspstrong uwtable
define internal void @qobject_input_end_struct(ptr noundef %v, ptr noundef %obj) #0 {
entry:
  %v.addr = alloca ptr, align 8
  %obj.addr = alloca ptr, align 8
  %qiv = alloca ptr, align 8
  %tos = alloca ptr, align 8
  store ptr %v, ptr %v.addr, align 8
  store ptr %obj, ptr %obj.addr, align 8
  %0 = load ptr, ptr %v.addr, align 8
  %call = call ptr @to_qiv(ptr noundef %0)
  store ptr %call, ptr %qiv, align 8
  %1 = load ptr, ptr %qiv, align 8
  %stack = getelementptr inbounds %struct.QObjectInputVisitor, ptr %1, i32 0, i32 3
  %slh_first = getelementptr inbounds %struct.anon, ptr %stack, i32 0, i32 0
  %2 = load ptr, ptr %slh_first, align 8
  store ptr %2, ptr %tos, align 8
  %3 = load ptr, ptr %tos, align 8
  %obj1 = getelementptr inbounds %struct.StackObject, ptr %3, i32 0, i32 1
  %4 = load ptr, ptr %obj1, align 8
  %call2 = call i32 @qobject_type(ptr noundef %4)
  %cmp = icmp eq i32 %call2, 4
  br i1 %cmp, label %land.lhs.true, label %if.else

land.lhs.true:                                    ; preds = %entry
  %5 = load ptr, ptr %tos, align 8
  %h = getelementptr inbounds %struct.StackObject, ptr %5, i32 0, i32 3
  %6 = load ptr, ptr %h, align 8
  %tobool = icmp ne ptr %6, null
  br i1 %tobool, label %if.then, label %if.else

if.then:                                          ; preds = %land.lhs.true
  br label %if.end

if.else:                                          ; preds = %land.lhs.true, %entry
  call void @__assert_fail(ptr noundef @.str.22, ptr noundef @.str.1, i32 noundef 309, ptr noundef @__PRETTY_FUNCTION__.qobject_input_end_struct) #7
  unreachable

if.end:                                           ; preds = %if.then
  %7 = load ptr, ptr %v.addr, align 8
  %8 = load ptr, ptr %obj.addr, align 8
  call void @qobject_input_pop(ptr noundef %7, ptr noundef %8)
  ret void
}