; Function Attrs: nounwind sspstrong uwtable
define internal void @qobject_input_end_struct(ptr noundef captures(none) %v, ptr noundef readnone %obj) #0 {
entry:
  %stack = getelementptr inbounds nuw i8, ptr %v, i64 232
  %0 = load ptr, ptr %stack, align 8
  %obj1 = getelementptr inbounds nuw i8, ptr %0, i64 8
  %1 = load ptr, ptr %obj1, align 8
  %.val = load i32, ptr %1, align 8
  %2 = add i32 %.val, -1
  %or.cond.i = icmp ult i32 %2, 6
  br i1 %or.cond.i, label %qobject_type.exit, label %if.else.i

if.else.i:                                        ; preds = %entry
  tail call void @__assert_fail(ptr noundef nonnull @.str.12, ptr noundef nonnull @.str.13, i32 noundef 126, ptr noundef nonnull @__PRETTY_FUNCTION__.qobject_type) #7
  unreachable

qobject_type.exit:                                ; preds = %entry
  %cmp = icmp eq i32 %.val, 4
  br i1 %cmp, label %land.lhs.true, label %if.else

land.lhs.true:                                    ; preds = %qobject_type.exit
  %h = getelementptr inbounds nuw i8, ptr %0, i64 24
  %3 = load ptr, ptr %h, align 8
  %tobool.not = icmp eq ptr %3, null
  br i1 %tobool.not, label %if.else, label %land.lhs.true.i

if.else:                                          ; preds = %land.lhs.true, %qobject_type.exit
  tail call void @__assert_fail(ptr noundef nonnull @.str.22, ptr noundef nonnull @.str.1, i32 noundef 309, ptr noundef nonnull @__PRETTY_FUNCTION__.qobject_input_end_struct) #7
  unreachable

land.lhs.true.i:                                  ; preds = %land.lhs.true
  %qapi.i = getelementptr inbounds nuw i8, ptr %0, i64 16
  %4 = load ptr, ptr %qapi.i, align 8
  %cmp.i = icmp eq ptr %4, %obj
  br i1 %cmp.i, label %do.body.i, label %if.else.i3

if.else.i3:                                       ; preds = %land.lhs.true.i
  tail call void @__assert_fail(ptr noundef nonnull @.str.23, ptr noundef nonnull @.str.1, i32 noundef 273, ptr noundef nonnull @__PRETTY_FUNCTION__.qobject_input_pop) #7
  unreachable

do.body.i:                                        ; preds = %land.lhs.true.i
  %node.i = getelementptr inbounds nuw i8, ptr %0, i64 48
  %5 = load ptr, ptr %node.i, align 8
  store ptr %5, ptr %stack, align 8
  store ptr null, ptr %node.i, align 8
  %6 = load ptr, ptr %h, align 8
  %tobool.not.i.i = icmp eq ptr %6, null
  br i1 %tobool.not.i.i, label %qobject_input_pop.exit, label %if.then.i.i

if.then.i.i:                                      ; preds = %do.body.i
  tail call void @g_hash_table_unref(ptr noundef nonnull %6) #8
  br label %qobject_input_pop.exit

qobject_input_pop.exit:                           ; preds = %do.body.i, %if.then.i.i
  tail call void @g_free(ptr noundef nonnull %0) #8
  ret void
}